; Function Attrs: nounwind uwtable
define i32 @Prs_CreateSlice(ptr noundef %0, i32 noundef %1, ptr readnone captures(none) %2, i32 noundef %3) local_unnamed_addr #0 {
  %5 = tail call ptr @Cba_ManGetSliceName(ptr noundef %0, i32 noundef %1, i32 noundef %3) #28
  %6 = tail call i32 (ptr, ptr, ...) @Cba_NtkNewStrId(ptr noundef %0, ptr noundef %5)
  %.val = load ptr, ptr %0, align 8
  %7 = getelementptr inbounds nuw i8, ptr %.val, i64 48
  %8 = add nsw i32 %6, 1
  tail call fastcc void @Vec_IntFillExtra(ptr noundef nonnull %7, i32 noundef %8)
  %9 = getelementptr i8, ptr %.val, i64 56
  %.val.i.i.i = load ptr, ptr %9, align 8
  %10 = sext i32 %6 to i64
  %11 = getelementptr inbounds i32, ptr %.val.i.i.i, i64 %10
  %12 = load i32, ptr %11, align 4
  %.not = icmp eq i32 %12, 0
  br i1 %.not, label %13, label %38

13:                                               ; preds = %4
  %14 = tail call fastcc i32 @Cba_ObjAlloc(ptr noundef nonnull %0, i32 noundef 88, i32 noundef 1, i32 noundef 1)
  %15 = getelementptr inbounds nuw i8, ptr %0, i64 200
  %16 = add nsw i32 %14, 1
  tail call fastcc void @Vec_IntFillExtra(ptr noundef nonnull %15, i32 noundef %16)
  %17 = getelementptr i8, ptr %0, i64 208
  %.val.i.i = load ptr, ptr %17, align 8
  %18 = sext i32 %14 to i64
  %19 = getelementptr inbounds i32, ptr %.val.i.i, i64 %18
  store i32 %6, ptr %19, align 4
  %20 = getelementptr i8, ptr %0, i64 112
  %.val28 = load ptr, ptr %20, align 8
  %21 = getelementptr i8, ptr %0, i64 144
  %.val29 = load ptr, ptr %21, align 8
  %22 = getelementptr inbounds i32, ptr %.val28, i64 %18
  %23 = load i32, ptr %22, align 4
  %24 = sext i32 %23 to i64
  %25 = getelementptr inbounds i32, ptr %.val29, i64 %24
  store i32 %1, ptr %25, align 4
  %26 = getelementptr i8, ptr %0, i64 128
  %.val30 = load ptr, ptr %26, align 8
  %27 = getelementptr inbounds i32, ptr %.val30, i64 %18
  %28 = load i32, ptr %27, align 4
  %29 = getelementptr inbounds nuw i8, ptr %0, i64 280
  %30 = shl nsw i32 %3, 1
  %31 = add nsw i32 %28, 1
  tail call fastcc void @Vec_IntFillExtra(ptr noundef nonnull %29, i32 noundef %31)
  %32 = getelementptr i8, ptr %0, i64 288
  %.val.i.i32 = load ptr, ptr %32, align 8
  %33 = sext i32 %28 to i64
  %34 = getelementptr inbounds i32, ptr %.val.i.i32, i64 %33
  store i32 %30, ptr %34, align 4
  %35 = getelementptr inbounds nuw i8, ptr %0, i64 264
  tail call fastcc void @Vec_IntFillExtra(ptr noundef nonnull %35, i32 noundef %31)
  %36 = getelementptr i8, ptr %0, i64 272
  %.val.i.i33 = load ptr, ptr %36, align 8
  %37 = getelementptr inbounds i32, ptr %.val.i.i33, i64 %33
  store i32 %6, ptr %37, align 4
  %.val31 = load ptr, ptr %0, align 8
  tail call fastcc void @Cba_NtkSetMap(ptr %.val31, i32 noundef %6, i32 noundef %28)
  br label %38

38:                                               ; preds = %4, %13
  %.0 = phi i32 [ %28, %13 ], [ %12, %4 ]
  ret i32 %.0
}